target datalayout = "e-m:e-p270:32:32-p271:32:32-p272:64:64-i64:64-i128:128-f80:128-n8:16:32:64-S128"
target triple = "x86_64-pc-linux-gnu"

%struct.SDL_Renderer = type { ptr, ptr, ptr, ptr, ptr, ptr, ptr, ptr, ptr, ptr, ptr, ptr, ptr, ptr, ptr, ptr, ptr, ptr, ptr, ptr, ptr, ptr, ptr, ptr, ptr, ptr, ptr, ptr, ptr, ptr, i32, i8, ptr, i8, i8, i8, i64, i64, ptr, %struct.SDL_RenderViewState, %struct.SDL_FPoint, i32, i32, ptr, ptr, ptr, i32, float, float, float, float, %struct.SDL_FColor, i32, i32, i32, ptr, ptr, ptr, ptr, i32, %struct.SDL_FColor, float, %struct.SDL_Rect, %struct.SDL_Rect, i8, i8, i8, i8, ptr, i64, i64, i8, ptr, ptr, i32, ptr, i8, ptr, ptr }
%struct.SDL_RenderViewState = type { i32, i32, %struct.SDL_Rect, %struct.SDL_Rect, %struct.SDL_Rect, %struct.SDL_Rect, i8, %struct.SDL_FPoint, i32, i32, i32, %struct.SDL_FRect, %struct.SDL_FRect, %struct.SDL_FPoint, %struct.SDL_FPoint, %struct.SDL_FPoint }
%struct.SDL_FRect = type { float, float, float, float }
%struct.SDL_FPoint = type { float, float }
%struct.SDL_FColor = type { float, float, float, float }
%struct.SDL_Rect = type { i32, i32, i32, i32 }
%struct.VULKAN_Buffer = type { ptr, ptr, i64, ptr }
%struct.SDL_Texture = type { i32, i32, i32, i32, i32, float, float, i32, i32, i32, %struct.SDL_FColor, %struct.SDL_RenderViewState, ptr, ptr, ptr, ptr, i32, %struct.SDL_Rect, ptr, i32, i32, ptr, ptr, ptr }
%struct.VULKAN_TextureData = type { %struct.VULKAN_Image, [2 x ptr], ptr, %struct.VULKAN_Buffer, %struct.SDL_Rect, i32, i32, i32, ptr, ptr, ptr, ptr }
%struct.VULKAN_Image = type { i8, ptr, ptr, ptr, i32, i32 }

@.str.25 = private unnamed_addr constant [35 x i8] c"Texture is not currently available\00", align 1
@.str.30 = private unnamed_addr constant [26 x i8] c"texture is already locked\00", align 1

; Function Attrs: nounwind uwtable
define internal i64 @VULKAN_GetBytesPerPixel(i32 noundef %0) #0 {
  %2 = alloca i64, align 8
  %3 = alloca i32, align 4
  store i32 %0, ptr %3, align 4
  %4 = load i32, ptr %3, align 4
  switch i32 %4, label %10 [
    i32 9, label %5
    i32 16, label %6
    i32 77, label %7
    i32 50, label %8
    i32 44, label %8
    i32 58, label %8
    i32 97, label %9
  ]

5:                                                ; preds = %1
  store i64 1, ptr %2, align 8
  br label %11

6:                                                ; preds = %1
  store i64 2, ptr %2, align 8
  br label %11

7:                                                ; preds = %1
  store i64 4, ptr %2, align 8
  br label %11

8:                                                ; preds = %1, %1, %1
  store i64 4, ptr %2, align 8
  br label %11

9:                                                ; preds = %1
  store i64 8, ptr %2, align 8
  br label %11

10:                                               ; preds = %1
  store i64 4, ptr %2, align 8
  br label %11

11:                                               ; preds = %10, %9, %8, %7, %6, %5
  %12 = load i64, ptr %2, align 8
  ret i64 %12
}

; Function Attrs: nounwind uwtable
define internal zeroext i1 @VULKAN_LockTexture(ptr noundef %0, ptr noundef %1, ptr noundef %2, ptr noundef %3, ptr noundef %4) #0 {
  %6 = alloca i1, align 1
  %7 = alloca ptr, align 8
  %8 = alloca ptr, align 8
  %9 = alloca ptr, align 8
  %10 = alloca ptr, align 8
  %11 = alloca ptr, align 8
  %12 = alloca ptr, align 8
  %13 = alloca ptr, align 8
  %14 = alloca i32, align 4
  %15 = alloca i32, align 4
  %16 = alloca i64, align 8
  %17 = alloca i64, align 8
  %18 = alloca i64, align 8
  store ptr %0, ptr %7, align 8
  store ptr %1, ptr %8, align 8
  store ptr %2, ptr %9, align 8
  store ptr %3, ptr %10, align 8
  store ptr %4, ptr %11, align 8
  call void @llvm.lifetime.start.p0(i64 8, ptr %12) #6
  %19 = load ptr, ptr %7, align 8
  %20 = getelementptr inbounds nuw %struct.SDL_Renderer, ptr %19, i32 0, i32 77
  %21 = load ptr, ptr %20, align 8
  store ptr %21, ptr %12, align 8
  call void @llvm.lifetime.start.p0(i64 8, ptr %13) #6
  %22 = load ptr, ptr %8, align 8
  %23 = getelementptr inbounds nuw %struct.SDL_Texture, ptr %22, i32 0, i32 21
  %24 = load ptr, ptr %23, align 8
  store ptr %24, ptr %13, align 8
  call void @llvm.lifetime.start.p0(i64 4, ptr %14) #6
  %25 = load ptr, ptr %13, align 8
  %26 = icmp ne ptr %25, null
  br i1 %26, label %29, label %27

27:                                               ; preds = %5
  %28 = call zeroext i1 (ptr, ...) @SDL_SetError_REAL(ptr noundef @.str.25)
  store i1 %28, ptr %6, align 1
  store i32 1, ptr %15, align 4
  br label %76

29:                                               ; preds = %5
  %30 = load ptr, ptr %13, align 8
  %31 = getelementptr inbounds nuw %struct.VULKAN_TextureData, ptr %30, i32 0, i32 3
  %32 = getelementptr inbounds nuw %struct.VULKAN_Buffer, ptr %31, i32 0, i32 1
  %33 = load ptr, ptr %32, align 8
  %34 = icmp ne ptr %33, null
  br i1 %34, label %35, label %37

35:                                               ; preds = %29
  %36 = call zeroext i1 (ptr, ...) @SDL_SetError_REAL(ptr noundef @.str.30)
  store i1 %36, ptr %6, align 1
  store i32 1, ptr %15, align 4
  br label %76

37:                                               ; preds = %29
  call void @llvm.lifetime.start.p0(i64 8, ptr %16) #6
  %38 = load ptr, ptr %13, align 8
  %39 = getelementptr inbounds nuw %struct.VULKAN_TextureData, ptr %38, i32 0, i32 0
  %40 = getelementptr inbounds nuw %struct.VULKAN_Image, ptr %39, i32 0, i32 5
  %41 = load i32, ptr %40, align 4
  %42 = call i64 @VULKAN_GetBytesPerPixel(i32 noundef %41)
  store i64 %42, ptr %16, align 8
  call void @llvm.lifetime.start.p0(i64 8, ptr %17) #6
  %43 = load ptr, ptr %9, align 8
  %44 = getelementptr inbounds nuw %struct.SDL_Rect, ptr %43, i32 0, i32 2
  %45 = load i32, ptr %44, align 4
  %46 = sext i32 %45 to i64
  %47 = load i64, ptr %16, align 8
  %48 = mul i64 %46, %47
  store i64 %48, ptr %17, align 8
  call void @llvm.lifetime.start.p0(i64 8, ptr %18) #6
  %49 = load i64, ptr %17, align 8
  %50 = load ptr, ptr %9, align 8
  %51 = getelementptr inbounds nuw %struct.SDL_Rect, ptr %50, i32 0, i32 3
  %52 = load i32, ptr %51, align 4
  %53 = sext i32 %52 to i64
  %54 = mul i64 %49, %53
  store i64 %54, ptr %18, align 8
  %55 = load ptr, ptr %12, align 8
  %56 = load i64, ptr %18, align 8
  %57 = load ptr, ptr %13, align 8
  %58 = getelementptr inbounds nuw %struct.VULKAN_TextureData, ptr %57, i32 0, i32 3
  %59 = call i32 @VULKAN_AllocateBuffer(ptr noundef %55, i64 noundef %56, i32 noundef 1, i32 noundef 6, i32 noundef 1, ptr noundef %58)
  store i32 %59, ptr %14, align 4
  %60 = load i32, ptr %14, align 4
  %61 = icmp ne i32 %60, 0
  br i1 %61, label %62, label %63

62:                                               ; preds = %37
  store i1 false, ptr %6, align 1
  store i32 1, ptr %15, align 4
  br label %75

63:                                               ; preds = %37
  %64 = load ptr, ptr %13, align 8
  %65 = getelementptr inbounds nuw %struct.VULKAN_TextureData, ptr %64, i32 0, i32 4
  %66 = load ptr, ptr %9, align 8
  call void @llvm.memcpy.p0.p0.i64(ptr align 8 %65, ptr align 4 %66, i64 16, i1 false)
  %67 = load ptr, ptr %13, align 8
  %68 = getelementptr inbounds nuw %struct.VULKAN_TextureData, ptr %67, i32 0, i32 3
  %69 = getelementptr inbounds nuw %struct.VULKAN_Buffer, ptr %68, i32 0, i32 3
  %70 = load ptr, ptr %69, align 8
  %71 = load ptr, ptr %10, align 8
  store ptr %70, ptr %71, align 8
  %72 = load i64, ptr %17, align 8
  %73 = trunc i64 %72 to i32
  %74 = load ptr, ptr %11, align 8
  store i32 %73, ptr %74, align 4
  store i1 true, ptr %6, align 1
  store i32 1, ptr %15, align 4
  br label %75

75:                                               ; preds = %63, %62
  call void @llvm.lifetime.end.p0(i64 8, ptr %18) #6
  call void @llvm.lifetime.end.p0(i64 8, ptr %17) #6
  call void @llvm.lifetime.end.p0(i64 8, ptr %16) #6
  br label %76

76:                                               ; preds = %75, %35, %27
  call void @llvm.lifetime.end.p0(i64 4, ptr %14) #6
  call void @llvm.lifetime.end.p0(i64 8, ptr %13) #6
  call void @llvm.lifetime.end.p0(i64 8, ptr %12) #6
  %77 = load i1, ptr %6, align 1
  ret i1 %77
}