; Function Attrs: nounwind uwtable
define internal zeroext i1 @VULKAN_LockTexture(ptr noundef readonly captures(none) %0, ptr noundef readonly captures(none) %1, ptr noundef readonly captures(none) %2, ptr noundef writeonly captures(none) %3, ptr noundef writeonly captures(none) %4) #0 {
  %6 = getelementptr inbounds nuw i8, ptr %0, i64 696
  %7 = load ptr, ptr %6, align 8
  %8 = getelementptr inbounds nuw i8, ptr %1, i64 280
  %9 = load ptr, ptr %8, align 8
  %.not = icmp eq ptr %9, null
  br i1 %.not, label %10, label %12

10:                                               ; preds = %5
  %11 = tail call zeroext i1 (ptr, ...) @SDL_SetError_REAL(ptr noundef nonnull @.str.25) #8
  br label %38

12:                                               ; preds = %5
  %13 = getelementptr inbounds nuw i8, ptr %9, i64 72
  %14 = load ptr, ptr %13, align 8
  %.not20 = icmp eq ptr %14, null
  br i1 %.not20, label %17, label %15

15:                                               ; preds = %12
  %16 = tail call zeroext i1 (ptr, ...) @SDL_SetError_REAL(ptr noundef nonnull @.str.30) #8
  br label %38

17:                                               ; preds = %12
  %18 = getelementptr inbounds nuw i8, ptr %9, i64 64
  %19 = getelementptr inbounds nuw i8, ptr %9, i64 36
  %20 = load i32, ptr %19, align 4
  switch i32 %20, label %23 [
    i32 9, label %VULKAN_GetBytesPerPixel.exit
    i32 16, label %21
    i32 97, label %22
  ]

21:                                               ; preds = %17
  br label %VULKAN_GetBytesPerPixel.exit

22:                                               ; preds = %17
  br label %VULKAN_GetBytesPerPixel.exit

23:                                               ; preds = %17
  br label %VULKAN_GetBytesPerPixel.exit

VULKAN_GetBytesPerPixel.exit:                     ; preds = %17, %21, %22, %23
  %.0.i = phi i64 [ 4, %23 ], [ 8, %22 ], [ 2, %21 ], [ 1, %17 ]
  %24 = getelementptr inbounds nuw i8, ptr %2, i64 8
  %25 = load i32, ptr %24, align 4
  %26 = sext i32 %25 to i64
  %27 = mul nsw i64 %.0.i, %26
  %28 = getelementptr inbounds nuw i8, ptr %2, i64 12
  %29 = load i32, ptr %28, align 4
  %30 = sext i32 %29 to i64
  %31 = mul i64 %27, %30
  %32 = tail call fastcc i32 @VULKAN_AllocateBuffer(ptr noundef %7, i64 noundef %31, i32 noundef 1, ptr noundef nonnull %18)
  %.not21 = icmp eq i32 %32, 0
  br i1 %.not21, label %33, label %38

33:                                               ; preds = %VULKAN_GetBytesPerPixel.exit
  %34 = getelementptr inbounds nuw i8, ptr %9, i64 96
  tail call void @llvm.memcpy.p0.p0.i64(ptr noundef nonnull align 8 dereferenceable(16) %34, ptr noundef nonnull align 4 dereferenceable(16) %2, i64 16, i1 false)
  %35 = getelementptr inbounds nuw i8, ptr %9, i64 88
  %36 = load ptr, ptr %35, align 8
  store ptr %36, ptr %3, align 8
  %37 = trunc i64 %27 to i32
  store i32 %37, ptr %4, align 4
  br label %38

38:                                               ; preds = %33, %VULKAN_GetBytesPerPixel.exit, %15, %10
  %.0 = phi i1 [ %16, %15 ], [ %11, %10 ], [ false, %VULKAN_GetBytesPerPixel.exit ], [ true, %33 ]
  ret i1 %.0
}